target datalayout = "e-m:e-p270:32:32-p271:32:32-p272:64:64-i64:64-i128:128-f80:128-n8:16:32:64-S128"
target triple = "x86_64-pc-linux-gnu"

%struct.vp56_context = type { ptr, %struct.H264ChromaContext, %struct.HpelDSPContext, %struct.VideoDSPContext, %struct.VP3DSPContext, %struct.VP56DSPContext, [64 x i8], [4 x ptr], ptr, ptr, %struct.VPXRangeCoder, %struct.VPXRangeCoder, ptr, i32, i32, [4 x i32], [4 x i32], i32, i32, [6 x i32], i32, i16, i16, ptr, [4 x %struct.VP56RefDc], [6 x i32], [3 x [3 x i16]], i32, ptr, [8 x i8], [6 x [64 x i16]], [6 x i32], ptr, [6 x %struct.VP56mv], [2 x %struct.VP56mv], i32, i32, i32, i32, i32, i32, i32, [4 x i8], [256 x i32], [4 x [64 x i8]], [4 x i8], i32, i32, i32, i32, i32, i32, i32, [4 x i64], ptr, ptr, ptr, ptr, ptr, ptr, ptr, ptr, ptr, ptr, %struct.VP56Model, i32, %struct.GetBitContext, [2 x %struct.VLC], [2 x %struct.VLC], [2 x [3 x [4 x %struct.VLC]]], [2 x [2 x i32]], i32, i32 }
%struct.H264ChromaContext = type { [4 x ptr], [4 x ptr] }
%struct.HpelDSPContext = type { [4 x [4 x ptr]], [4 x [4 x ptr]], [4 x [4 x ptr]], [4 x ptr] }
%struct.VideoDSPContext = type { ptr, ptr }
%struct.VP3DSPContext = type { ptr, ptr, ptr, ptr, ptr, ptr, ptr, ptr }
%struct.VP56DSPContext = type { ptr, ptr, ptr }
%struct.VPXRangeCoder = type { i32, i32, ptr, ptr, i32, i32 }
%struct.VP56RefDc = type { i8, i32, i16 }
%struct.VP56mv = type { i16, i16 }
%struct.VP56Model = type { [64 x i8], [64 x i8], [64 x i8], [2 x i8], [2 x i8], [2 x [2 x i8]], [2 x [7 x i8]], [2 x [8 x i8]], [2 x [11 x i8]], [2 x [3 x [6 x [11 x i8]]]], [2 x [3 x [3 x [6 x [5 x i8]]]]], [2 x [36 x [5 x i8]]], [2 x [14 x i8]], [3 x [10 x [10 x i8]]], [3 x [10 x [2 x i8]]] }
%struct.GetBitContext = type { ptr, ptr, i32, i32, i32 }
%struct.VLC = type { i32, ptr, i32, i32 }

@ff_vp56_filter_threshold = external constant [0 x i8], align 1
@ff_vp56_dc_dequant = external constant [64 x i8], align 16
@ff_vp56_ac_dequant = external constant [64 x i8], align 16

; Function Attrs: nounwind uwtable
define void @ff_vp56_init_dequant(ptr noundef %0, i32 noundef %1) #0 {
  %3 = alloca ptr, align 8
  %4 = alloca i32, align 4
  store ptr %0, ptr %3, align 8, !tbaa !4
  store i32 %1, ptr %4, align 4, !tbaa !9
  %5 = load ptr, ptr %3, align 8, !tbaa !4
  %6 = getelementptr inbounds nuw %struct.vp56_context, ptr %5, i32 0, i32 20
  %7 = load i32, ptr %6, align 16, !tbaa !11
  %8 = load i32, ptr %4, align 4, !tbaa !9
  %9 = icmp ne i32 %7, %8
  br i1 %9, label %10, label %19

10:                                               ; preds = %2
  %11 = load ptr, ptr %3, align 8, !tbaa !4
  %12 = getelementptr inbounds nuw %struct.vp56_context, ptr %11, i32 0, i32 43
  %13 = getelementptr inbounds [256 x i32], ptr %12, i64 0, i64 0
  %14 = load i32, ptr %4, align 4, !tbaa !9
  %15 = sext i32 %14 to i64
  %16 = getelementptr inbounds [0 x i8], ptr @ff_vp56_filter_threshold, i64 0, i64 %15
  %17 = load i8, ptr %16, align 1, !tbaa !28
  %18 = zext i8 %17 to i32
  call void @ff_vp3dsp_set_bounding_values(ptr noundef %13, i32 noundef %18)
  br label %19

19:                                               ; preds = %10, %2
  %20 = load i32, ptr %4, align 4, !tbaa !9
  %21 = load ptr, ptr %3, align 8, !tbaa !4
  %22 = getelementptr inbounds nuw %struct.vp56_context, ptr %21, i32 0, i32 20
  store i32 %20, ptr %22, align 16, !tbaa !11
  %23 = load i32, ptr %4, align 4, !tbaa !9
  %24 = sext i32 %23 to i64
  %25 = getelementptr inbounds [64 x i8], ptr @ff_vp56_dc_dequant, i64 0, i64 %24
  %26 = load i8, ptr %25, align 1, !tbaa !28
  %27 = zext i8 %26 to i32
  %28 = shl i32 %27, 2
  %29 = trunc i32 %28 to i16
  %30 = load ptr, ptr %3, align 8, !tbaa !4
  %31 = getelementptr inbounds nuw %struct.vp56_context, ptr %30, i32 0, i32 21
  store i16 %29, ptr %31, align 4, !tbaa !29
  %32 = load i32, ptr %4, align 4, !tbaa !9
  %33 = sext i32 %32 to i64
  %34 = getelementptr inbounds [64 x i8], ptr @ff_vp56_ac_dequant, i64 0, i64 %33
  %35 = load i8, ptr %34, align 1, !tbaa !28
  %36 = zext i8 %35 to i32
  %37 = shl i32 %36, 2
  %38 = trunc i32 %37 to i16
  %39 = load ptr, ptr %3, align 8, !tbaa !4
  %40 = getelementptr inbounds nuw %struct.vp56_context, ptr %39, i32 0, i32 22
  store i16 %38, ptr %40, align 2, !tbaa !30
  ret void
}