; Function Attrs: nounwind uwtable
define void @ff_vp56_init_dequant(ptr noundef %0, i32 noundef %1) local_unnamed_addr #0 {
  %3 = getelementptr inbounds nuw i8, ptr %0, i64 848
  %4 = load i32, ptr %3, align 16, !tbaa !4
  %.not = icmp eq i32 %4, %1
  br i1 %.not, label %._crit_edge, label %5

._crit_edge:                                      ; preds = %2
  %.pre = sext i32 %1 to i64
  br label %11

5:                                                ; preds = %2
  %6 = getelementptr inbounds nuw i8, ptr %0, i64 1840
  %7 = sext i32 %1 to i64
  %8 = getelementptr inbounds [0 x i8], ptr @ff_vp56_filter_threshold, i64 0, i64 %7
  %9 = load i8, ptr %8, align 1, !tbaa !26
  %10 = zext i8 %9 to i32
  tail call void @ff_vp3dsp_set_bounding_values(ptr noundef nonnull %6, i32 noundef %10) #8
  br label %11

11:                                               ; preds = %._crit_edge, %5
  %.pre-phi = phi i64 [ %.pre, %._crit_edge ], [ %7, %5 ]
  store i32 %1, ptr %3, align 16, !tbaa !4
  %12 = getelementptr inbounds [64 x i8], ptr @ff_vp56_dc_dequant, i64 0, i64 %.pre-phi
  %13 = load i8, ptr %12, align 1, !tbaa !26
  %14 = zext i8 %13 to i16
  %15 = shl nuw nsw i16 %14, 2
  %16 = getelementptr inbounds nuw i8, ptr %0, i64 852
  store i16 %15, ptr %16, align 4, !tbaa !27
  %17 = getelementptr inbounds [64 x i8], ptr @ff_vp56_ac_dequant, i64 0, i64 %.pre-phi
  %18 = load i8, ptr %17, align 1, !tbaa !26
  %19 = zext i8 %18 to i16
  %20 = shl nuw nsw i16 %19, 2
  %21 = getelementptr inbounds nuw i8, ptr %0, i64 854
  store i16 %20, ptr %21, align 2, !tbaa !28
  ret void
}